; Function Attrs: mustprogress uwtable
define void @_ZN6icu_7522RuleBasedBreakIterator7setTextEP5UTextR10UErrorCode(ptr noundef nonnull align 8 dereferenceable(745) %this, ptr noundef %ut, ptr noundef nonnull align 4 dereferenceable(4) %status) unnamed_addr #1 align 2 personality ptr @__gxx_personality_v0 {
entry:
  %agg.tmp = alloca %"class.icu_75::ConstChar16Ptr", align 8
  %0 = load i32, ptr %status, align 4
  %cmp.i = icmp slt i32 %0, 1
  br i1 %cmp.i, label %if.end, label %return

if.end:                                           ; preds = %entry
  %fBreakCache = getelementptr inbounds i8, ptr %this, i64 648
  %1 = load ptr, ptr %fBreakCache, align 8
  tail call void @_ZN6icu_7522RuleBasedBreakIterator10BreakCache5resetEii(ptr noundef nonnull align 8 dereferenceable(832) %1, i32 noundef 0, i32 noundef 0)
  %fDictionaryCache = getelementptr inbounds i8, ptr %this, i64 656
  %2 = load ptr, ptr %fDictionaryCache, align 8
  tail call void @_ZN6icu_7522RuleBasedBreakIterator15DictionaryCache5resetEv(ptr noundef nonnull align 8 dereferenceable(60) %2)
  %fText = getelementptr inbounds i8, ptr %this, i64 480
  %call2 = tail call ptr @utext_clone_75(ptr noundef nonnull %fText, ptr noundef %ut, i8 noundef signext 0, i8 noundef signext 1, ptr noundef nonnull %status)
  %fSCharIter = getelementptr inbounds i8, ptr %this, i64 696
  store ptr @.str, ptr %agg.tmp, align 8
  invoke void @_ZN6icu_7522UCharCharacterIterator7setTextENS_14ConstChar16PtrEi(ptr noundef nonnull align 8 dereferenceable(32) %fSCharIter, ptr noundef nonnull %agg.tmp, i32 noundef 0)
          to label %invoke.cont unwind label %lpad

invoke.cont:                                      ; preds = %if.end
  %3 = load ptr, ptr %agg.tmp, align 8
  call void asm sideeffect "", "rm,~{memory},~{dirflag},~{fpsr},~{flags}"(ptr %3) #15, !srcloc !4
  %fCharIter = getelementptr inbounds i8, ptr %this, i64 688
  %4 = load ptr, ptr %fCharIter, align 8
  %cmp.not = icmp eq ptr %4, %fSCharIter
  %isnull = icmp eq ptr %4, null
  %or.cond = or i1 %cmp.not, %isnull
  br i1 %or.cond, label %if.end6, label %delete.notnull

delete.notnull:                                   ; preds = %invoke.cont
  %vtable = load ptr, ptr %4, align 8
  %vfn = getelementptr inbounds i8, ptr %vtable, i64 8
  %5 = load ptr, ptr %vfn, align 8
  call void %5(ptr noundef nonnull align 8 dereferenceable(24) %4) #15
  br label %if.end6

lpad:                                             ; preds = %if.end
  %6 = landingpad { ptr, i32 }
          cleanup
  %7 = load ptr, ptr %agg.tmp, align 8
  call void asm sideeffect "", "rm,~{memory},~{dirflag},~{fpsr},~{flags}"(ptr %7) #15, !srcloc !4
  resume { ptr, i32 } %6

if.end6:                                          ; preds = %delete.notnull, %invoke.cont
  store ptr %fSCharIter, ptr %fCharIter, align 8
  %vtable9 = load ptr, ptr %this, align 8
  %vfn10 = getelementptr inbounds i8, ptr %vtable9, i64 80
  %8 = load ptr, ptr %vfn10, align 8
  %call11 = call noundef i32 %8(ptr noundef nonnull align 8 dereferenceable(745) %this)
  br label %return

return:                                           ; preds = %entry, %if.end6
  ret void
}